target datalayout = "e-m:e-p270:32:32-p271:32:32-p272:64:64-i64:64-i128:128-f80:128-n8:16:32:64-S128"
target triple = "x86_64-pc-linux-gnu"

%struct._asn1_ctx_t = type { i32, i32, i8, ptr, ptr, ptr, ptr, ptr, %struct.anon, %struct.anon.2, %struct.anon.3, ptr }
%struct.anon = type { i32, i8, i8, i8, ptr, ptr, i32, i32, ptr, ptr, ptr, %union.anon }
%union.anon = type { %struct.anon.0 }
%struct.anon.0 = type { ptr }
%struct.anon.2 = type { ptr, ptr, ptr }
%struct.anon.3 = type { i32, i8, ptr, i32, i32, ptr, ptr, ptr, %union.anon.4 }
%union.anon.4 = type { %struct.anon.5 }
%struct.anon.5 = type { ptr }

; Function Attrs: nounwind uwtable
define i32 @dissect_oer_enumerated(ptr noundef %0, i32 noundef %1, ptr noundef %2, ptr noundef %3, i32 noundef %4, i32 noundef %5, ptr noundef %6, i32 noundef %7, i32 noundef %8, ptr noundef %9) #0 {
  %11 = alloca ptr, align 8
  %12 = alloca i32, align 4
  %13 = alloca ptr, align 8
  %14 = alloca ptr, align 8
  %15 = alloca i32, align 4
  %16 = alloca i32, align 4
  %17 = alloca ptr, align 8
  %18 = alloca i32, align 4
  %19 = alloca i32, align 4
  %20 = alloca ptr, align 8
  %21 = alloca i32, align 4
  %22 = alloca i32, align 4
  store ptr %0, ptr %11, align 8
  store i32 %1, ptr %12, align 4
  store ptr %2, ptr %13, align 8
  store ptr %3, ptr %14, align 8
  store i32 %4, ptr %15, align 4
  store i32 %5, ptr %16, align 4
  store ptr %6, ptr %17, align 8
  store i32 %7, ptr %18, align 4
  store i32 %8, ptr %19, align 4
  store ptr %9, ptr %20, align 8
  %23 = load i32, ptr %12, align 4
  store i32 %23, ptr %21, align 4
  %24 = load ptr, ptr %11, align 8
  %25 = load i32, ptr %12, align 4
  %26 = load ptr, ptr %13, align 8
  %27 = load ptr, ptr %14, align 8
  %28 = call i32 @dissect_oer_length_determinant(ptr noundef %24, i32 noundef %25, ptr noundef %26, ptr noundef %27, i32 noundef -1, ptr noundef %22)
  store i32 %28, ptr %12, align 4
  %29 = load ptr, ptr %14, align 8
  %30 = load i32, ptr %15, align 4
  %31 = load ptr, ptr %11, align 8
  %32 = load i32, ptr %21, align 4
  %33 = load i32, ptr %12, align 4
  %34 = load i32, ptr %21, align 4
  %35 = sub i32 %33, %34
  %36 = load i32, ptr %22, align 4
  %37 = call ptr @proto_tree_add_uint(ptr noundef %29, i32 noundef %30, ptr noundef %31, i32 noundef %32, i32 noundef %35, i32 noundef %36)
  %38 = load ptr, ptr %13, align 8
  %39 = getelementptr inbounds %struct._asn1_ctx_t, ptr %38, i32 0, i32 4
  store ptr %37, ptr %39, align 8
  %40 = load ptr, ptr %17, align 8
  %41 = icmp ne ptr %40, null
  br i1 %41, label %42, label %45

42:                                               ; preds = %10
  %43 = load i32, ptr %22, align 4
  %44 = load ptr, ptr %17, align 8
  store i32 %43, ptr %44, align 4
  br label %45

45:                                               ; preds = %42, %10
  %46 = load i32, ptr %12, align 4
  ret i32 %46
}