; Function Attrs: nounwind uwtable
define i32 @dissect_oer_enumerated(ptr noundef %0, i32 noundef %1, ptr noundef captures(none) %2, ptr noundef %3, i32 noundef %4, i32 noundef %5, ptr noundef writeonly %6, i32 noundef %7, i32 noundef %8, ptr noundef readnone captures(none) %9) local_unnamed_addr #0 {
  %11 = alloca i32, align 4
  %12 = call fastcc i32 @dissect_oer_length_determinant(ptr noundef %0, i32 noundef %1, ptr noundef %2, ptr noundef %3, i32 noundef -1, ptr noundef %11)
  %13 = sub i32 %12, %1
  %14 = load i32, ptr %11, align 4
  %15 = tail call ptr @proto_tree_add_uint(ptr noundef %3, i32 noundef %4, ptr noundef %0, i32 noundef %1, i32 noundef %13, i32 noundef %14) #8
  %16 = getelementptr inbounds nuw i8, ptr %2, i64 24
  store ptr %15, ptr %16, align 8
  %.not = icmp eq ptr %6, null
  br i1 %.not, label %18, label %17

17:                                               ; preds = %10
  store i32 %14, ptr %6, align 4
  br label %18

18:                                               ; preds = %17, %10
  ret i32 %12
}